; Function Attrs: nounwind uwtable
define ptr @l___private_Lean_Data_Lsp_LanguageFeatures_0__Lean_Lsp_toJsonFoldingRangeParams____x40_Lean_Data_Lsp_LanguageFeatures___hyg_10833_(ptr noundef %0) #0 {
  %2 = tail call ptr @l___private_Lean_Data_Lsp_Basic_0__Lean_Lsp_toJsonTextDocumentIdentifier____x40_Lean_Data_Lsp_Basic___hyg_2244_(ptr noundef %0) #9
  %3 = load ptr, ptr @l___private_Lean_Data_Lsp_LanguageFeatures_0__Lean_Lsp_fromJsonCompletionParams____x40_Lean_Data_Lsp_LanguageFeatures___hyg_2953____closed__1, align 8, !tbaa !4
  tail call void @lean_inc_heartbeat() #9
  %4 = tail call noalias ptr @mi_malloc_small(i64 noundef 24) #9
  %5 = icmp eq ptr %4, null
  br i1 %5, label %6, label %lean_alloc_ctor.exit

6:                                                ; preds = %1
  tail call void @lean_internal_panic_out_of_memory() #10
  unreachable

lean_alloc_ctor.exit:                             ; preds = %1
  %7 = getelementptr inbounds nuw i8, ptr %4, i64 4
  store i32 1, ptr %4, align 4, !tbaa !8
  store i32 131096, ptr %7, align 4
  %8 = getelementptr inbounds nuw i8, ptr %4, i64 8
  store ptr %3, ptr %8, align 8, !tbaa !4
  %9 = getelementptr inbounds nuw i8, ptr %4, i64 16
  store ptr %2, ptr %9, align 8, !tbaa !4
  tail call void @lean_inc_heartbeat() #9
  %10 = tail call noalias ptr @mi_malloc_small(i64 noundef 24) #9
  %11 = icmp eq ptr %10, null
  br i1 %11, label %12, label %lean_alloc_ctor.exit17

12:                                               ; preds = %lean_alloc_ctor.exit
  tail call void @lean_internal_panic_out_of_memory() #10
  unreachable

lean_alloc_ctor.exit17:                           ; preds = %lean_alloc_ctor.exit
  %13 = getelementptr inbounds nuw i8, ptr %10, i64 4
  store i32 1, ptr %10, align 4, !tbaa !8
  store i32 16908312, ptr %13, align 4
  %14 = getelementptr inbounds nuw i8, ptr %10, i64 8
  store ptr %4, ptr %14, align 8, !tbaa !4
  %15 = getelementptr inbounds nuw i8, ptr %10, i64 16
  store ptr inttoptr (i64 1 to ptr), ptr %15, align 8, !tbaa !4
  tail call void @lean_inc_heartbeat() #9
  %16 = tail call noalias ptr @mi_malloc_small(i64 noundef 24) #9
  %17 = icmp eq ptr %16, null
  br i1 %17, label %18, label %lean_alloc_ctor.exit18

18:                                               ; preds = %lean_alloc_ctor.exit17
  tail call void @lean_internal_panic_out_of_memory() #10
  unreachable

lean_alloc_ctor.exit18:                           ; preds = %lean_alloc_ctor.exit17
  %19 = getelementptr inbounds nuw i8, ptr %16, i64 4
  store i32 1, ptr %16, align 4, !tbaa !8
  store i32 16908312, ptr %19, align 4
  %20 = getelementptr inbounds nuw i8, ptr %16, i64 8
  store ptr %10, ptr %20, align 8, !tbaa !4
  %21 = getelementptr inbounds nuw i8, ptr %16, i64 16
  store ptr inttoptr (i64 1 to ptr), ptr %21, align 8, !tbaa !4
  %22 = load ptr, ptr @l___private_Lean_Data_Lsp_LanguageFeatures_0__Lean_Lsp_toJsonCompletionOptions____x40_Lean_Data_Lsp_LanguageFeatures___hyg_189____closed__1, align 8, !tbaa !4
  %23 = tail call ptr @l_List_flatMapTR_go___at___private_Lean_Data_Lsp_Basic_0__Lean_Lsp_toJsonPosition____x40_Lean_Data_Lsp_Basic___hyg_221____spec__1(ptr noundef nonnull %16, ptr noundef %22) #9
  %24 = tail call ptr @l_Lean_Json_mkObj(ptr noundef %23) #9
  ret ptr %24
}